target datalayout = "e-m:e-p270:32:32-p271:32:32-p272:64:64-i64:64-i128:128-f80:128-n8:16:32:64-S128"
target triple = "x86_64-pc-linux-gnu"

%struct.PageHeaderData = type { %struct.PageXLogRecPtr, i16, i16, i16, i16, i16, i16, i32, [0 x %struct.ItemIdData] }
%struct.PageXLogRecPtr = type { i32, i32 }
%struct.ItemIdData = type { i32 }
%struct.HashPageOpaqueData = type { i32, i32, i32, i16, i16 }
%struct.HashMetaPageData = type { i32, i32, double, i16, i16, i16, i16, i32, i32, i32, i32, i32, i32, i32, [98 x i32], [1024 x i32] }

@.str = private unnamed_addr constant [27 x i8] c"hash AM does not use P_NEW\00", align 1
@.str.1 = private unnamed_addr constant [11 x i8] c"hashpage.c\00", align 1
@__func__._hash_getbuf = private unnamed_addr constant [13 x i8] c"_hash_getbuf\00", align 1
@LocalBufferBlockPointers = external global ptr, align 8
@BufferBlocks = external global ptr, align 8

; Function Attrs: inlinehint nounwind uwtable
define internal ptr @BufferGetBlock(i32 noundef %0) #4 {
  %2 = alloca ptr, align 8
  %3 = alloca i32, align 4
  store i32 %0, ptr %3, align 4
  %4 = load i32, ptr %3, align 4
  %5 = icmp slt i32 %4, 0
  br i1 %5, label %6, label %14

6:                                                ; preds = %1
  %7 = load ptr, ptr @LocalBufferBlockPointers, align 8
  %8 = load i32, ptr %3, align 4
  %9 = sub i32 0, %8
  %10 = sub i32 %9, 1
  %11 = sext i32 %10 to i64
  %12 = getelementptr inbounds ptr, ptr %7, i64 %11
  %13 = load ptr, ptr %12, align 8
  store ptr %13, ptr %2, align 8
  br label %21

14:                                               ; preds = %1
  %15 = load ptr, ptr @BufferBlocks, align 8
  %16 = load i32, ptr %3, align 4
  %17 = sub i32 %16, 1
  %18 = sext i32 %17 to i64
  %19 = mul i64 %18, 8192
  %20 = getelementptr inbounds nuw i8, ptr %15, i64 %19
  store ptr %20, ptr %2, align 8
  br label %21

21:                                               ; preds = %14, %6
  %22 = load ptr, ptr %2, align 8
  ret ptr %22
}

; Function Attrs: nounwind uwtable
define dso_local void @_hash_dropbuf(ptr noundef %0, i32 noundef %1) #0 {
  %3 = alloca ptr, align 8
  %4 = alloca i32, align 4
  store ptr %0, ptr %3, align 8
  store i32 %1, ptr %4, align 4
  %5 = load i32, ptr %4, align 4
  call void @ReleaseBuffer(i32 noundef %5)
  ret void
}

; Function Attrs: inlinehint nounwind uwtable
define internal zeroext i1 @BufferIsValid(i32 noundef %0) #4 {
  %2 = alloca i32, align 4
  store i32 %0, ptr %2, align 4
  %3 = load i32, ptr %2, align 4
  %4 = icmp ne i32 %3, 0
  ret i1 %4
}

; Function Attrs: nounwind uwtable
define dso_local void @_hash_relbuf(ptr noundef %0, i32 noundef %1) #0 {
  %3 = alloca ptr, align 8
  %4 = alloca i32, align 4
  store ptr %0, ptr %3, align 8
  store i32 %1, ptr %4, align 4
  %5 = load i32, ptr %4, align 4
  call void @UnlockReleaseBuffer(i32 noundef %5)
  ret void
}

; Function Attrs: inlinehint nounwind uwtable
define internal void @PageValidateSpecialPointer(ptr noundef %0) #4 {
  %2 = alloca ptr, align 8
  store ptr %0, ptr %2, align 8
  ret void
}

; Function Attrs: inlinehint nounwind uwtable
define internal ptr @BufferGetPage(i32 noundef %0) #4 {
  %2 = alloca i32, align 4
  store i32 %0, ptr %2, align 4
  %3 = load i32, ptr %2, align 4
  %4 = call ptr @BufferGetBlock(i32 noundef %3)
  ret ptr %4
}

; Function Attrs: nounwind uwtable
define dso_local i32 @_hash_getbuf(ptr noundef %0, i32 noundef %1, i32 noundef %2, i32 noundef %3) #0 {
  %5 = alloca ptr, align 8
  %6 = alloca i32, align 4
  %7 = alloca i32, align 4
  %8 = alloca i32, align 4
  %9 = alloca i32, align 4
  store ptr %0, ptr %5, align 8
  store i32 %1, ptr %6, align 4
  store i32 %2, ptr %7, align 4
  store i32 %3, ptr %8, align 4
  call void @llvm.lifetime.start.p0(i64 4, ptr %9) #9
  %10 = load i32, ptr %6, align 4
  %11 = icmp eq i32 %10, -1
  br i1 %11, label %12, label %23

12:                                               ; preds = %4
  br label %13

13:                                               ; preds = %12
  br i1 true, label %14, label %16

14:                                               ; preds = %13
  %15 = call zeroext i1 @errstart_cold(i32 noundef 21, ptr noundef null) #10
  br i1 %15, label %18, label %20

16:                                               ; preds = %13
  %17 = call zeroext i1 @errstart(i32 noundef 21, ptr noundef null)
  br i1 %17, label %18, label %20

18:                                               ; preds = %16, %14
  %19 = call i32 (ptr, ...) @errmsg_internal(ptr noundef @.str)
  call void @errfinish(ptr noundef @.str.1, i32 noundef 75, ptr noundef @__func__._hash_getbuf)
  br label %20

20:                                               ; preds = %18, %16, %14
  unreachable

21:                                               ; No predecessors!
  br label %22

22:                                               ; preds = %21
  br label %23

23:                                               ; preds = %22, %4
  %24 = load ptr, ptr %5, align 8
  %25 = load i32, ptr %6, align 4
  %26 = call i32 @ReadBuffer(ptr noundef %24, i32 noundef %25)
  store i32 %26, ptr %9, align 4
  %27 = load i32, ptr %7, align 4
  %28 = icmp ne i32 %27, -1
  br i1 %28, label %29, label %32

29:                                               ; preds = %23
  %30 = load i32, ptr %9, align 4
  %31 = load i32, ptr %7, align 4
  call void @LockBuffer(i32 noundef %30, i32 noundef %31)
  br label %32

32:                                               ; preds = %29, %23
  %33 = load ptr, ptr %5, align 8
  %34 = load i32, ptr %9, align 4
  %35 = load i32, ptr %8, align 4
  call void @_hash_checkpage(ptr noundef %33, i32 noundef %34, i32 noundef %35)
  %36 = load i32, ptr %9, align 4
  call void @llvm.lifetime.end.p0(i64 4, ptr %9) #9
  ret i32 %36
}

; Function Attrs: nounwind uwtable
define dso_local i32 @_hash_getbucketbuf_from_hashkey(ptr noundef %0, i32 noundef %1, i32 noundef %2, ptr noundef %3) #0 {
  %5 = alloca ptr, align 8
  %6 = alloca i32, align 4
  %7 = alloca i32, align 4
  %8 = alloca ptr, align 8
  %9 = alloca ptr, align 8
  %10 = alloca i32, align 4
  %11 = alloca i32, align 4
  %12 = alloca ptr, align 8
  %13 = alloca i32, align 4
  %14 = alloca i32, align 4
  %15 = alloca ptr, align 8
  store ptr %0, ptr %5, align 8
  store i32 %1, ptr %6, align 4
  store i32 %2, ptr %7, align 4
  store ptr %3, ptr %8, align 8
  call void @llvm.lifetime.start.p0(i64 8, ptr %9) #9
  call void @llvm.lifetime.start.p0(i64 4, ptr %10) #9
  call void @llvm.lifetime.start.p0(i64 4, ptr %11) #9
  store i32 0, ptr %11, align 4
  call void @llvm.lifetime.start.p0(i64 8, ptr %12) #9
  call void @llvm.lifetime.start.p0(i64 4, ptr %13) #9
  call void @llvm.lifetime.start.p0(i64 4, ptr %14) #9
  call void @llvm.lifetime.start.p0(i64 8, ptr %15) #9
  %16 = load ptr, ptr %5, align 8
  %17 = call ptr @_hash_getcachedmetap(ptr noundef %16, ptr noundef %11, i1 noundef zeroext false)
  store ptr %17, ptr %9, align 8
  br label %18

18:                                               ; preds = %70, %4
  %19 = load i32, ptr %6, align 4
  %20 = load ptr, ptr %9, align 8
  %21 = getelementptr inbounds nuw %struct.HashMetaPageData, ptr %20, i32 0, i32 7
  %22 = load i32, ptr %21, align 8
  %23 = load ptr, ptr %9, align 8
  %24 = getelementptr inbounds nuw %struct.HashMetaPageData, ptr %23, i32 0, i32 8
  %25 = load i32, ptr %24, align 4
  %26 = load ptr, ptr %9, align 8
  %27 = getelementptr inbounds nuw %struct.HashMetaPageData, ptr %26, i32 0, i32 9
  %28 = load i32, ptr %27, align 8
  %29 = call i32 @_hash_hashkey2bucket(i32 noundef %19, i32 noundef %22, i32 noundef %25, i32 noundef %28)
  store i32 %29, ptr %13, align 4
  %30 = load i32, ptr %13, align 4
  %31 = load i32, ptr %13, align 4
  %32 = icmp ne i32 %31, 0
  br i1 %32, label %33, label %43

33:                                               ; preds = %18
  %34 = load ptr, ptr %9, align 8
  %35 = getelementptr inbounds nuw %struct.HashMetaPageData, ptr %34, i32 0, i32 14
  %36 = load i32, ptr %13, align 4
  %37 = add i32 %36, 1
  %38 = call i32 @_hash_spareindex(i32 noundef %37)
  %39 = sub i32 %38, 1
  %40 = zext i32 %39 to i64
  %41 = getelementptr inbounds nuw [98 x i32], ptr %35, i64 0, i64 %40
  %42 = load i32, ptr %41, align 4
  br label %44

43:                                               ; preds = %18
  br label %44

44:                                               ; preds = %43, %33
  %45 = phi i32 [ %42, %33 ], [ 0, %43 ]
  %46 = add i32 %30, %45
  %47 = add i32 %46, 1
  store i32 %47, ptr %14, align 4
  %48 = load ptr, ptr %5, align 8
  %49 = load i32, ptr %14, align 4
  %50 = load i32, ptr %7, align 4
  %51 = call i32 @_hash_getbuf(ptr noundef %48, i32 noundef %49, i32 noundef %50, i32 noundef 2)
  store i32 %51, ptr %10, align 4
  %52 = load i32, ptr %10, align 4
  %53 = call ptr @BufferGetPage(i32 noundef %52)
  store ptr %53, ptr %12, align 8
  %54 = load ptr, ptr %12, align 8
  call void @PageValidateSpecialPointer(ptr noundef %54)
  %55 = load ptr, ptr %12, align 8
  %56 = load ptr, ptr %12, align 8
  %57 = getelementptr inbounds nuw %struct.PageHeaderData, ptr %56, i32 0, i32 5
  %58 = load i16, ptr %57, align 4
  %59 = zext i16 %58 to i32
  %60 = sext i32 %59 to i64
  %61 = getelementptr inbounds i8, ptr %55, i64 %60
  store ptr %61, ptr %15, align 8
  %62 = load ptr, ptr %15, align 8
  %63 = getelementptr inbounds nuw %struct.HashPageOpaqueData, ptr %62, i32 0, i32 0
  %64 = load i32, ptr %63, align 4
  %65 = load ptr, ptr %9, align 8
  %66 = getelementptr inbounds nuw %struct.HashMetaPageData, ptr %65, i32 0, i32 7
  %67 = load i32, ptr %66, align 8
  %68 = icmp ule i32 %64, %67
  br i1 %68, label %69, label %70

69:                                               ; preds = %44
  br label %75

70:                                               ; preds = %44
  %71 = load ptr, ptr %5, align 8
  %72 = load i32, ptr %10, align 4
  call void @_hash_relbuf(ptr noundef %71, i32 noundef %72)
  %73 = load ptr, ptr %5, align 8
  %74 = call ptr @_hash_getcachedmetap(ptr noundef %73, ptr noundef %11, i1 noundef zeroext true)
  store ptr %74, ptr %9, align 8
  br label %18

75:                                               ; preds = %69
  %76 = load i32, ptr %11, align 4
  %77 = call zeroext i1 @BufferIsValid(i32 noundef %76)
  br i1 %77, label %78, label %81

78:                                               ; preds = %75
  %79 = load ptr, ptr %5, align 8
  %80 = load i32, ptr %11, align 4
  call void @_hash_dropbuf(ptr noundef %79, i32 noundef %80)
  br label %81

81:                                               ; preds = %78, %75
  %82 = load ptr, ptr %8, align 8
  %83 = icmp ne ptr %82, null
  br i1 %83, label %84, label %87

84:                                               ; preds = %81
  %85 = load ptr, ptr %9, align 8
  %86 = load ptr, ptr %8, align 8
  store ptr %85, ptr %86, align 8
  br label %87

87:                                               ; preds = %84, %81
  %88 = load i32, ptr %10, align 4
  call void @llvm.lifetime.end.p0(i64 8, ptr %15) #9
  call void @llvm.lifetime.end.p0(i64 4, ptr %14) #9
  call void @llvm.lifetime.end.p0(i64 4, ptr %13) #9
  call void @llvm.lifetime.end.p0(i64 8, ptr %12) #9
  call void @llvm.lifetime.end.p0(i64 4, ptr %11) #9
  call void @llvm.lifetime.end.p0(i64 4, ptr %10) #9
  call void @llvm.lifetime.end.p0(i64 8, ptr %9) #9
  ret i32 %88
}