; Function Attrs: nounwind uwtable
define dso_local i32 @_hash_getbucketbuf_from_hashkey(ptr noundef %0, i32 noundef %1, i32 noundef %2, ptr noundef writeonly captures(address_is_null) %3) local_unnamed_addr #0 {
  %5 = alloca i32, align 4
  call void @llvm.lifetime.start.p0(i64 4, ptr nonnull %5) #10
  store i32 0, ptr %5, align 4
  %6 = call ptr @_hash_getcachedmetap(ptr noundef %0, ptr noundef nonnull %5, i1 noundef zeroext false)
  %.not.i = icmp eq i32 %2, -1
  br label %7

7:                                                ; preds = %49, %4
  %.0 = phi ptr [ %6, %4 ], [ %50, %49 ]
  %8 = getelementptr inbounds nuw i8, ptr %.0, i64 24
  %9 = load i32, ptr %8, align 8
  %10 = getelementptr inbounds nuw i8, ptr %.0, i64 28
  %11 = load i32, ptr %10, align 4
  %12 = getelementptr inbounds nuw i8, ptr %.0, i64 32
  %13 = load i32, ptr %12, align 8
  %14 = tail call i32 @_hash_hashkey2bucket(i32 noundef %1, i32 noundef %9, i32 noundef %11, i32 noundef %13) #10
  %.not = icmp eq i32 %14, 0
  br i1 %.not, label %._crit_edge.thread, label %._crit_edge

._crit_edge:                                      ; preds = %7
  %15 = getelementptr inbounds nuw i8, ptr %.0, i64 52
  %16 = add i32 %14, 1
  %17 = tail call i32 @_hash_spareindex(i32 noundef %16) #10
  %18 = add i32 %17, -1
  %19 = zext i32 %18 to i64
  %20 = getelementptr inbounds nuw [98 x i32], ptr %15, i64 0, i64 %19
  %21 = load i32, ptr %20, align 4
  %22 = add i32 %16, %21
  %23 = icmp eq i32 %22, -1
  br i1 %23, label %24, label %._crit_edge.thread

24:                                               ; preds = %._crit_edge
  %25 = tail call zeroext i1 @errstart_cold(i32 noundef 21, ptr noundef null) #9
  tail call void @llvm.assume(i1 %25)
  %26 = tail call i32 (ptr, ...) @errmsg_internal(ptr noundef nonnull @.str) #10
  tail call void @errfinish(ptr noundef nonnull @.str.1, i32 noundef 75, ptr noundef nonnull @__func__._hash_getbuf) #10
  unreachable

._crit_edge.thread:                               ; preds = %7, %._crit_edge
  %27 = phi i32 [ %22, %._crit_edge ], [ 1, %7 ]
  %28 = tail call i32 @ReadBuffer(ptr noundef %0, i32 noundef %27) #10
  br i1 %.not.i, label %_hash_getbuf.exit, label %29

29:                                               ; preds = %._crit_edge.thread
  tail call void @LockBuffer(i32 noundef %28, i32 noundef %2) #10
  br label %_hash_getbuf.exit

_hash_getbuf.exit:                                ; preds = %._crit_edge.thread, %29
  tail call void @_hash_checkpage(ptr noundef %0, i32 noundef %28, i32 noundef 2) #10
  %30 = icmp slt i32 %28, 0
  br i1 %30, label %31, label %37

31:                                               ; preds = %_hash_getbuf.exit
  %32 = load ptr, ptr @LocalBufferBlockPointers, align 8
  %33 = xor i32 %28, -1
  %34 = zext nneg i32 %33 to i64
  %35 = getelementptr inbounds nuw ptr, ptr %32, i64 %34
  %36 = load ptr, ptr %35, align 8
  br label %BufferGetPage.exit

37:                                               ; preds = %_hash_getbuf.exit
  %38 = load ptr, ptr @BufferBlocks, align 8
  %39 = add nsw i32 %28, -1
  %40 = sext i32 %39 to i64
  %41 = shl nsw i64 %40, 13
  %42 = getelementptr inbounds nuw i8, ptr %38, i64 %41
  br label %BufferGetPage.exit

BufferGetPage.exit:                               ; preds = %31, %37
  %.0.i.i = phi ptr [ %36, %31 ], [ %42, %37 ]
  %43 = getelementptr inbounds nuw i8, ptr %.0.i.i, i64 16
  %44 = load i16, ptr %43, align 4
  %45 = zext i16 %44 to i64
  %46 = getelementptr inbounds nuw i8, ptr %.0.i.i, i64 %45
  %47 = load i32, ptr %46, align 4
  %48 = load i32, ptr %8, align 8
  %.not27 = icmp ugt i32 %47, %48
  br i1 %.not27, label %49, label %51

49:                                               ; preds = %BufferGetPage.exit
  tail call void @UnlockReleaseBuffer(i32 noundef %28) #10
  %50 = call ptr @_hash_getcachedmetap(ptr noundef %0, ptr noundef nonnull %5, i1 noundef zeroext true)
  br label %7

51:                                               ; preds = %BufferGetPage.exit
  %52 = load i32, ptr %5, align 4
  %.not29 = icmp eq i32 %52, 0
  br i1 %.not29, label %54, label %53

53:                                               ; preds = %51
  tail call void @ReleaseBuffer(i32 noundef %52) #10
  br label %54

54:                                               ; preds = %53, %51
  %.not28 = icmp eq ptr %3, null
  br i1 %.not28, label %56, label %55

55:                                               ; preds = %54
  store ptr %.0, ptr %3, align 8
  br label %56

56:                                               ; preds = %55, %54
  call void @llvm.lifetime.end.p0(i64 4, ptr nonnull %5) #10
  ret i32 %28
}